target datalayout = "e-m:e-p270:32:32-p271:32:32-p272:64:64-i64:64-i128:128-f80:128-n8:16:32:64-S128"
target triple = "x86_64-pc-linux-gnu"

@.str.168 = private unnamed_addr constant [3 x i8] c"%v\00", align 1
@.str.258 = private unnamed_addr constant [121 x i8] c"More than 1 variant streams are present, %%v is expected either in the filename or in the sub-directory name of file %s\0A\00", align 1
@.str.259 = private unnamed_addr constant [105 x i8] c"%%v is expected either in the filename or in the sub-directory name of file %s, but only in one of them\0A\00", align 1

; Function Attrs: nounwind uwtable
define internal i32 @validate_name(i32 noundef %0, ptr noundef %1) #0 {
  %3 = alloca i32, align 4
  %4 = alloca i32, align 4
  %5 = alloca ptr, align 8
  %6 = alloca ptr, align 8
  %7 = alloca ptr, align 8
  %8 = alloca ptr, align 8
  %9 = alloca i32, align 4
  %10 = alloca i32, align 4
  store i32 %0, ptr %4, align 4, !tbaa !30
  store ptr %1, ptr %5, align 8, !tbaa !73
  call void @llvm.lifetime.start.p0(i64 8, ptr %6) #15
  call void @llvm.lifetime.start.p0(i64 8, ptr %7) #15
  call void @llvm.lifetime.start.p0(i64 8, ptr %8) #15
  store ptr null, ptr %8, align 8, !tbaa !73
  call void @llvm.lifetime.start.p0(i64 4, ptr %9) #15
  store i32 0, ptr %9, align 4, !tbaa !30
  %11 = load ptr, ptr %5, align 8, !tbaa !73
  %12 = icmp ne ptr %11, null
  br i1 %12, label %14, label %13

13:                                               ; preds = %2
  store i32 -22, ptr %3, align 4
  store i32 1, ptr %10, align 4
  br label %50

14:                                               ; preds = %2
  %15 = load ptr, ptr %5, align 8, !tbaa !73
  %16 = call noalias ptr @av_strdup(ptr noundef %15)
  store ptr %16, ptr %8, align 8, !tbaa !73
  %17 = load ptr, ptr %8, align 8, !tbaa !73
  %18 = icmp ne ptr %17, null
  br i1 %18, label %20, label %19

19:                                               ; preds = %14
  store i32 -12, ptr %3, align 4
  store i32 1, ptr %10, align 4
  br label %50

20:                                               ; preds = %14
  %21 = load ptr, ptr %5, align 8, !tbaa !73
  %22 = call ptr @av_basename(ptr noundef %21)
  store ptr %22, ptr %6, align 8, !tbaa !73
  %23 = load ptr, ptr %8, align 8, !tbaa !73
  %24 = call ptr @av_dirname(ptr noundef %23)
  store ptr %24, ptr %7, align 8, !tbaa !73
  %25 = load i32, ptr %4, align 4, !tbaa !30
  %26 = icmp sgt i32 %25, 1
  br i1 %26, label %27, label %37

27:                                               ; preds = %20
  %28 = load ptr, ptr %6, align 8, !tbaa !73
  %29 = call ptr @av_stristr(ptr noundef %28, ptr noundef @.str.168)
  %30 = icmp ne ptr %29, null
  br i1 %30, label %37, label %31

31:                                               ; preds = %27
  %32 = load ptr, ptr %7, align 8, !tbaa !73
  %33 = call ptr @av_stristr(ptr noundef %32, ptr noundef @.str.168)
  %34 = icmp ne ptr %33, null
  br i1 %34, label %37, label %35

35:                                               ; preds = %31
  %36 = load ptr, ptr %5, align 8, !tbaa !73
  call void (ptr, i32, ptr, ...) @av_log(ptr noundef null, i32 noundef 16, ptr noundef @.str.258, ptr noundef %36)
  store i32 -22, ptr %9, align 4, !tbaa !30
  br label %48

37:                                               ; preds = %31, %27, %20
  %38 = load ptr, ptr %6, align 8, !tbaa !73
  %39 = call ptr @av_stristr(ptr noundef %38, ptr noundef @.str.168)
  %40 = icmp ne ptr %39, null
  br i1 %40, label %41, label %47

41:                                               ; preds = %37
  %42 = load ptr, ptr %7, align 8, !tbaa !73
  %43 = call ptr @av_stristr(ptr noundef %42, ptr noundef @.str.168)
  %44 = icmp ne ptr %43, null
  br i1 %44, label %45, label %47

45:                                               ; preds = %41
  %46 = load ptr, ptr %5, align 8, !tbaa !73
  call void (ptr, i32, ptr, ...) @av_log(ptr noundef null, i32 noundef 16, ptr noundef @.str.259, ptr noundef %46)
  store i32 -22, ptr %9, align 4, !tbaa !30
  br label %48

47:                                               ; preds = %41, %37
  br label %48

48:                                               ; preds = %47, %45, %35
  call void @av_freep(ptr noundef %8)
  %49 = load i32, ptr %9, align 4, !tbaa !30
  store i32 %49, ptr %3, align 4
  store i32 1, ptr %10, align 4
  br label %50

50:                                               ; preds = %48, %19, %13
  call void @llvm.lifetime.end.p0(i64 4, ptr %9) #15
  call void @llvm.lifetime.end.p0(i64 8, ptr %8) #15
  call void @llvm.lifetime.end.p0(i64 8, ptr %7) #15
  call void @llvm.lifetime.end.p0(i64 8, ptr %6) #15
  %51 = load i32, ptr %3, align 4
  ret i32 %51
}