; Function Attrs: nounwind uwtable
define internal fastcc range(i32 -22, 1) i32 @validate_name(i32 noundef %0, ptr noundef %1) unnamed_addr #0 {
  %3 = alloca ptr, align 8
  call void @llvm.lifetime.start.p0(i64 8, ptr nonnull %3) #17
  %.not = icmp eq ptr %1, null
  br i1 %.not, label %19, label %4

4:                                                ; preds = %2
  %5 = tail call noalias ptr @av_strdup(ptr noundef nonnull %1) #17
  store ptr %5, ptr %3, align 8, !tbaa !66
  %.not13 = icmp eq ptr %5, null
  br i1 %.not13, label %19, label %6

6:                                                ; preds = %4
  %7 = tail call ptr @av_basename(ptr noundef nonnull %1) #17
  %8 = tail call ptr @av_dirname(ptr noundef nonnull %5) #17
  %9 = icmp sgt i32 %0, 1
  br i1 %9, label %10, label %14

10:                                               ; preds = %6
  %11 = tail call ptr @av_stristr(ptr noundef %7, ptr noundef nonnull @.str.168) #17
  %.not14 = icmp eq ptr %11, null
  br i1 %.not14, label %12, label %14

12:                                               ; preds = %10
  %13 = tail call ptr @av_stristr(ptr noundef %8, ptr noundef nonnull @.str.168) #17
  %.not15 = icmp eq ptr %13, null
  br i1 %.not15, label %.sink.split, label %14

14:                                               ; preds = %12, %10, %6
  %15 = tail call ptr @av_stristr(ptr noundef %7, ptr noundef nonnull @.str.168) #17
  %.not16 = icmp eq ptr %15, null
  br i1 %.not16, label %18, label %16

16:                                               ; preds = %14
  %17 = tail call ptr @av_stristr(ptr noundef %8, ptr noundef nonnull @.str.168) #17
  %.not17 = icmp eq ptr %17, null
  br i1 %.not17, label %18, label %.sink.split

.sink.split:                                      ; preds = %16, %12
  %.str.259.sink = phi ptr [ @.str.258, %12 ], [ @.str.259, %16 ]
  tail call void (ptr, i32, ptr, ...) @av_log(ptr noundef null, i32 noundef 16, ptr noundef nonnull %.str.259.sink, ptr noundef nonnull %1) #17
  br label %18

18:                                               ; preds = %.sink.split, %14, %16
  %.0 = phi i32 [ 0, %16 ], [ 0, %14 ], [ -22, %.sink.split ]
  call void @av_freep(ptr noundef nonnull %3) #17
  br label %19

19:                                               ; preds = %4, %2, %18
  %.011 = phi i32 [ %.0, %18 ], [ -22, %2 ], [ -12, %4 ]
  call void @llvm.lifetime.end.p0(i64 8, ptr nonnull %3) #17
  ret i32 %.011
}